; ModuleID = '44/393.c'
source_filename = "44/393.c"
target datalayout = "e-m:e-p270:32:32-p271:32:32-p272:64:64-i64:64-f80:128-n8:16:32:64-S128"
target triple = "x86_64-pc-linux-gnu"

@.str = private unnamed_addr constant [3 x i8] c"%d\00", align 1
@.str.1 = private unnamed_addr constant [4 x i8] c"%d\0A\00", align 1

; Function Attrs: noinline nounwind uwtable
define dso_local i32 @reverse(i32 %0) #0 {
  %2 = alloca i32, align 4
  %3 = alloca i32, align 4
  %4 = alloca i32, align 4
  %5 = alloca i32, align 4
  %6 = alloca i32, align 4
  %7 = alloca i32, align 4
  %8 = alloca i32, align 4
  store i32 %0, i32* %2, align 4
  store i32 0, i32* %3, align 4
  store i32 1, i32* %8, align 4
  %9 = load i32, i32* %2, align 4
  %10 = icmp slt i32 %9, 0
  br i1 %10, label %11, label %14

11:                                               ; preds = %1
  store i32 -1, i32* %8, align 4
  %12 = load i32, i32* %2, align 4
  %13 = sub nsw i32 0, %12
  store i32 %13, i32* %2, align 4
  br label %14

14:                                               ; preds = %11, %1
  store i32 0, i32* %7, align 4
  br label %15

15:                                               ; preds = %26, %14
  br i1 true, label %16, label %29

16:                                               ; preds = %15
  %17 = load i32, i32* %2, align 4
  %18 = sitofp i32 %17 to double
  %19 = load i32, i32* %7, align 4
  %20 = sitofp i32 %19 to double
  %21 = call double @pow(double 1.000000e+01, double %20) #3
  %22 = fdiv double %18, %21
  %23 = fcmp olt double %22, 1.000000e+01
  br i1 %23, label %24, label %25

24:                                               ; preds = %16
  br label %29

25:                                               ; preds = %16
  br label %26

26:                                               ; preds = %25
  %27 = load i32, i32* %7, align 4
  %28 = add nsw i32 %27, 1
  store i32 %28, i32* %7, align 4
  br label %15

29:                                               ; preds = %24, %15
  store i32 0, i32* %4, align 4
  br label %30

30:                                               ; preds = %49, %29
  %31 = load i32, i32* %4, align 4
  %32 = load i32, i32* %7, align 4
  %33 = icmp sle i32 %31, %32
  br i1 %33, label %34, label %52

34:                                               ; preds = %30
  %35 = load i32, i32* %7, align 4
  %36 = load i32, i32* %4, align 4
  %37 = sub nsw i32 %35, %36
  %38 = sitofp i32 %37 to double
  %39 = call double @pow(double 1.000000e+01, double %38) #3
  %40 = fptosi double %39 to i32
  store i32 %40, i32* %6, align 4
  %41 = load i32, i32* %2, align 4
  %42 = srem i32 %41, 10
  %43 = load i32, i32* %6, align 4
  %44 = mul nsw i32 %42, %43
  %45 = load i32, i32* %3, align 4
  %46 = add nsw i32 %45, %44
  store i32 %46, i32* %3, align 4
  %47 = load i32, i32* %2, align 4
  %48 = sdiv i32 %47, 10
  store i32 %48, i32* %2, align 4
  br label %49

49:                                               ; preds = %34
  %50 = load i32, i32* %4, align 4
  %51 = add nsw i32 %50, 1
  store i32 %51, i32* %4, align 4
  br label %30

52:                                               ; preds = %30
  %53 = load i32, i32* %3, align 4
  %54 = load i32, i32* %8, align 4
  %55 = mul nsw i32 %53, %54
  ret i32 %55
}

; Function Attrs: nounwind
declare dso_local double @pow(double, double) #1

; Function Attrs: noinline nounwind uwtable
define dso_local i32 @main() #0 {
  %1 = alloca i32, align 4
  %2 = alloca i32, align 4
  %3 = alloca i32, align 4
  store i32 0, i32* %1, align 4
  store i32 0, i32* %3, align 4
  br label %4

4:                                                ; preds = %12, %0
  %5 = load i32, i32* %3, align 4
  %6 = icmp slt i32 %5, 6
  br i1 %6, label %7, label %15

7:                                                ; preds = %4
  %8 = call i32 (i8*, ...) @__isoc99_scanf(i8* getelementptr inbounds ([3 x i8], [3 x i8]* @.str, i64 0, i64 0), i32* %2)
  %9 = load i32, i32* %2, align 4
  %10 = call i32 @reverse(i32 %9)
  %11 = call i32 (i8*, ...) @printf(i8* getelementptr inbounds ([4 x i8], [4 x i8]* @.str.1, i64 0, i64 0), i32 %10)
  br label %12

12:                                               ; preds = %7
  %13 = load i32, i32* %3, align 4
  %14 = add nsw i32 %13, 1
  store i32 %14, i32* %3, align 4
  br label %4

15:                                               ; preds = %4
  ret i32 0
}

declare dso_local i32 @__isoc99_scanf(i8*, ...) #2

declare dso_local i32 @printf(i8*, ...) #2


!llvm.module.flags = !{!0}
!llvm.ident = !{!1}

!0 = !{i32 1, !"wchar_size", i32 4}
!1 = !{!"clang version 10.0.0-4ubuntu1 "}
